; Function Attrs: mustprogress uwtable
define hidden noundef ptr @_ZN13pdecl_manager17mk_paccessor_declEjRK6symbolRK5ptype(ptr nocapture noundef nonnull align 8 dereferenceable(192) %this, i32 noundef %num_params, ptr nocapture noundef nonnull readonly align 8 dereferenceable(8) %s, ptr nocapture noundef nonnull readonly align 8 dereferenceable(24) %p) local_unnamed_addr #3 align 2 personality ptr @__gxx_personality_v0 {
entry:
  %m_allocator.i = getelementptr inbounds i8, ptr %this, i64 8
  %0 = load ptr, ptr %m_allocator.i, align 8
  %call2 = tail call noundef ptr @_ZN22small_object_allocator8allocateEm(ptr noundef nonnull align 8 dereferenceable(520) %0, i64 noundef 56)
  %m_id_gen = getelementptr inbounds i8, ptr %this, i64 16
  %m_free_ids.i = getelementptr inbounds i8, ptr %this, i64 24
  %1 = load ptr, ptr %m_free_ids.i, align 8
  %cmp.i.i = icmp eq ptr %1, null
  br i1 %cmp.i.i, label %if.then.i, label %_ZNK6vectorIjLb0EjE5emptyEv.exit.i

_ZNK6vectorIjLb0EjE5emptyEv.exit.i:               ; preds = %entry
  %arrayidx.i.i = getelementptr inbounds i8, ptr %1, i64 -4
  %2 = load i32, ptr %arrayidx.i.i, align 4
  %cmp3.i.i = icmp eq i32 %2, 0
  br i1 %cmp3.i.i, label %if.then.i, label %_ZN6vectorIjLb0EjE4backEv.exit.i

if.then.i:                                        ; preds = %_ZNK6vectorIjLb0EjE5emptyEv.exit.i, %entry
  %3 = load i32, ptr %m_id_gen, align 8
  %inc.i = add i32 %3, 1
  store i32 %inc.i, ptr %m_id_gen, align 8
  br label %_ZN6id_gen2mkEv.exit

_ZN6vectorIjLb0EjE4backEv.exit.i:                 ; preds = %_ZNK6vectorIjLb0EjE5emptyEv.exit.i
  %4 = add i32 %2, -1
  %5 = zext i32 %4 to i64
  %arrayidx.i1.i.i = getelementptr inbounds i32, ptr %1, i64 %5
  %6 = load i32, ptr %arrayidx.i1.i.i, align 4
  store i32 %4, ptr %arrayidx.i.i, align 4
  br label %_ZN6id_gen2mkEv.exit

_ZN6id_gen2mkEv.exit:                             ; preds = %if.then.i, %_ZN6vectorIjLb0EjE4backEv.exit.i
  %r.0.i = phi i32 [ %3, %if.then.i ], [ %6, %_ZN6vectorIjLb0EjE4backEv.exit.i ]
  %m_id.i.i = getelementptr inbounds i8, ptr %call2, i64 8
  store i32 %r.0.i, ptr %m_id.i.i, align 8
  %m_num_params.i.i = getelementptr inbounds i8, ptr %call2, i64 12
  store i32 %num_params, ptr %m_num_params.i.i, align 4
  %m_ref_count.i.i = getelementptr inbounds i8, ptr %call2, i64 16
  store i32 0, ptr %m_ref_count.i.i, align 8
  store ptr getelementptr inbounds ({ [10 x ptr] }, ptr @_ZTV14paccessor_decl, i64 0, i32 0, i64 2), ptr %call2, align 8
  %m_name.i = getelementptr inbounds i8, ptr %call2, i64 24
  %7 = load i64, ptr %s, align 8
  store i64 %7, ptr %m_name.i, align 8
  %m_type.i = getelementptr inbounds i8, ptr %call2, i64 32
  tail call void @llvm.memcpy.p0.p0.i64(ptr noundef nonnull align 8 dereferenceable(24) %m_type.i, ptr noundef nonnull align 8 dereferenceable(24) %p, i64 24, i1 false)
  %8 = load i32, ptr %m_type.i, align 8
  %cmp.i = icmp eq i32 %8, 0
  br i1 %cmp.i, label %if.then.i1, label %_ZN14paccessor_declC2EjjR13pdecl_managerRK6symbolRK5ptype.exit

if.then.i1:                                       ; preds = %_ZN6id_gen2mkEv.exit
  %9 = getelementptr inbounds i8, ptr %p, i64 8
  %10 = load ptr, ptr %9, align 8
  %tobool.not.i.i = icmp eq ptr %10, null
  br i1 %tobool.not.i.i, label %_ZN14paccessor_declC2EjjR13pdecl_managerRK6symbolRK5ptype.exit, label %if.then.i.i

if.then.i.i:                                      ; preds = %if.then.i1
  %m_ref_count.i.i.i = getelementptr inbounds i8, ptr %10, i64 16
  %11 = load i32, ptr %m_ref_count.i.i.i, align 8
  %inc.i.i.i = add i32 %11, 1
  store i32 %inc.i.i.i, ptr %m_ref_count.i.i.i, align 8
  br label %_ZN14paccessor_declC2EjjR13pdecl_managerRK6symbolRK5ptype.exit

_ZN14paccessor_declC2EjjR13pdecl_managerRK6symbolRK5ptype.exit: ; preds = %_ZN6id_gen2mkEv.exit, %if.then.i1, %if.then.i.i
  ret ptr %call2
}